target datalayout = "e-m:e-p270:32:32-p271:32:32-p272:64:64-i64:64-i128:128-f80:128-n8:16:32:64-S128"
target triple = "x86_64-pc-linux-gnu"

%struct.expert_field = type { i32, i32 }

@hf_elink_mcount_alignment_errors = internal global i32 0, align 4
@hf_elink_mcount_fcs_errors = internal global i32 0, align 4
@hf_elink_mcount_single_collisions = internal global i32 0, align 4
@hf_elink_mcount_multiple_collisions = internal global i32 0, align 4
@hf_elink_mcount_sqe_test_errors = internal global i32 0, align 4
@hf_elink_mcount_deferred_transmission = internal global i32 0, align 4
@hf_elink_mcount_late_collisions = internal global i32 0, align 4
@hf_elink_mcount_excessive_collisions = internal global i32 0, align 4
@hf_elink_mcount_mac_transmit_errors = internal global i32 0, align 4
@hf_elink_mcount_carrier_sense_errors = internal global i32 0, align 4
@hf_elink_mcount_frame_too_long = internal global i32 0, align 4
@hf_elink_mcount_mac_receive_errors = internal global i32 0, align 4
@ei_mal_elink_media_counters = internal global %struct.expert_field zeroinitializer, align 4

; Function Attrs: null_pointer_is_valid sspstrong uwtable
define internal i32 @dissect_elink_media_counters(ptr noundef %0, ptr noundef %1, ptr noundef %2, ptr noundef %3, i32 noundef %4, i32 noundef %5) #0 {
  %7 = alloca i32, align 4
  %8 = alloca ptr, align 8
  %9 = alloca ptr, align 8
  %10 = alloca ptr, align 8
  %11 = alloca ptr, align 8
  %12 = alloca i32, align 4
  %13 = alloca i32, align 4
  store ptr %0, ptr %8, align 8
  store ptr %1, ptr %9, align 8
  store ptr %2, ptr %10, align 8
  store ptr %3, ptr %11, align 8
  store i32 %4, ptr %12, align 4
  store i32 %5, ptr %13, align 4
  %14 = load i32, ptr %13, align 4
  %15 = icmp slt i32 %14, 48
  br i1 %15, label %16, label %21

16:                                               ; preds = %6
  %17 = load ptr, ptr %8, align 8
  %18 = load ptr, ptr %10, align 8
  %19 = call ptr @expert_add_info(ptr noundef %17, ptr noundef %18, ptr noundef @ei_mal_elink_media_counters)
  %20 = load i32, ptr %13, align 4
  store i32 %20, ptr %7, align 4
  br label %93

21:                                               ; preds = %6
  %22 = load ptr, ptr %9, align 8
  %23 = load i32, ptr @hf_elink_mcount_alignment_errors, align 4
  %24 = load ptr, ptr %11, align 8
  %25 = load i32, ptr %12, align 4
  %26 = call ptr @proto_tree_add_item(ptr noundef %22, i32 noundef %23, ptr noundef %24, i32 noundef %25, i32 noundef 4, i32 noundef -2147483648)
  %27 = load ptr, ptr %9, align 8
  %28 = load i32, ptr @hf_elink_mcount_fcs_errors, align 4
  %29 = load ptr, ptr %11, align 8
  %30 = load i32, ptr %12, align 4
  %31 = add i32 %30, 4
  %32 = call ptr @proto_tree_add_item(ptr noundef %27, i32 noundef %28, ptr noundef %29, i32 noundef %31, i32 noundef 4, i32 noundef -2147483648)
  %33 = load ptr, ptr %9, align 8
  %34 = load i32, ptr @hf_elink_mcount_single_collisions, align 4
  %35 = load ptr, ptr %11, align 8
  %36 = load i32, ptr %12, align 4
  %37 = add i32 %36, 8
  %38 = call ptr @proto_tree_add_item(ptr noundef %33, i32 noundef %34, ptr noundef %35, i32 noundef %37, i32 noundef 4, i32 noundef -2147483648)
  %39 = load ptr, ptr %9, align 8
  %40 = load i32, ptr @hf_elink_mcount_multiple_collisions, align 4
  %41 = load ptr, ptr %11, align 8
  %42 = load i32, ptr %12, align 4
  %43 = add i32 %42, 12
  %44 = call ptr @proto_tree_add_item(ptr noundef %39, i32 noundef %40, ptr noundef %41, i32 noundef %43, i32 noundef 4, i32 noundef -2147483648)
  %45 = load ptr, ptr %9, align 8
  %46 = load i32, ptr @hf_elink_mcount_sqe_test_errors, align 4
  %47 = load ptr, ptr %11, align 8
  %48 = load i32, ptr %12, align 4
  %49 = add i32 %48, 16
  %50 = call ptr @proto_tree_add_item(ptr noundef %45, i32 noundef %46, ptr noundef %47, i32 noundef %49, i32 noundef 4, i32 noundef -2147483648)
  %51 = load ptr, ptr %9, align 8
  %52 = load i32, ptr @hf_elink_mcount_deferred_transmission, align 4
  %53 = load ptr, ptr %11, align 8
  %54 = load i32, ptr %12, align 4
  %55 = add i32 %54, 20
  %56 = call ptr @proto_tree_add_item(ptr noundef %51, i32 noundef %52, ptr noundef %53, i32 noundef %55, i32 noundef 4, i32 noundef -2147483648)
  %57 = load ptr, ptr %9, align 8
  %58 = load i32, ptr @hf_elink_mcount_late_collisions, align 4
  %59 = load ptr, ptr %11, align 8
  %60 = load i32, ptr %12, align 4
  %61 = add i32 %60, 24
  %62 = call ptr @proto_tree_add_item(ptr noundef %57, i32 noundef %58, ptr noundef %59, i32 noundef %61, i32 noundef 4, i32 noundef -2147483648)
  %63 = load ptr, ptr %9, align 8
  %64 = load i32, ptr @hf_elink_mcount_excessive_collisions, align 4
  %65 = load ptr, ptr %11, align 8
  %66 = load i32, ptr %12, align 4
  %67 = add i32 %66, 28
  %68 = call ptr @proto_tree_add_item(ptr noundef %63, i32 noundef %64, ptr noundef %65, i32 noundef %67, i32 noundef 4, i32 noundef -2147483648)
  %69 = load ptr, ptr %9, align 8
  %70 = load i32, ptr @hf_elink_mcount_mac_transmit_errors, align 4
  %71 = load ptr, ptr %11, align 8
  %72 = load i32, ptr %12, align 4
  %73 = add i32 %72, 32
  %74 = call ptr @proto_tree_add_item(ptr noundef %69, i32 noundef %70, ptr noundef %71, i32 noundef %73, i32 noundef 4, i32 noundef -2147483648)
  %75 = load ptr, ptr %9, align 8
  %76 = load i32, ptr @hf_elink_mcount_carrier_sense_errors, align 4
  %77 = load ptr, ptr %11, align 8
  %78 = load i32, ptr %12, align 4
  %79 = add i32 %78, 36
  %80 = call ptr @proto_tree_add_item(ptr noundef %75, i32 noundef %76, ptr noundef %77, i32 noundef %79, i32 noundef 4, i32 noundef -2147483648)
  %81 = load ptr, ptr %9, align 8
  %82 = load i32, ptr @hf_elink_mcount_frame_too_long, align 4
  %83 = load ptr, ptr %11, align 8
  %84 = load i32, ptr %12, align 4
  %85 = add i32 %84, 40
  %86 = call ptr @proto_tree_add_item(ptr noundef %81, i32 noundef %82, ptr noundef %83, i32 noundef %85, i32 noundef 4, i32 noundef -2147483648)
  %87 = load ptr, ptr %9, align 8
  %88 = load i32, ptr @hf_elink_mcount_mac_receive_errors, align 4
  %89 = load ptr, ptr %11, align 8
  %90 = load i32, ptr %12, align 4
  %91 = add i32 %90, 44
  %92 = call ptr @proto_tree_add_item(ptr noundef %87, i32 noundef %88, ptr noundef %89, i32 noundef %91, i32 noundef 4, i32 noundef -2147483648)
  store i32 48, ptr %7, align 4
  br label %93

93:                                               ; preds = %21, %16
  %94 = load i32, ptr %7, align 4
  ret i32 %94
}